target datalayout = "e-m:e-p270:32:32-p271:32:32-p272:64:64-i64:64-i128:128-f80:128-n8:16:32:64-S128"
target triple = "x86_64-pc-linux-gnu"

%struct.AVChannelLayout = type { i32, i32, %union.anon, ptr }
%union.anon = type { i64 }
%struct.AVCodecParameters = type { i32, i32, i32, ptr, i32, ptr, i32, i32, i64, i32, i32, i32, i32, i32, i32, %struct.AVRational, %struct.AVRational, i32, i32, i32, i32, i32, i32, i32, %struct.AVChannelLayout, i32, i32, i32, i32, i32, i32 }
%struct.AVRational = type { i32, i32 }

@.str.5 = private unnamed_addr constant [9 x i8] c"BottomUp\00", align 1

; Function Attrs: nounwind uwtable
define void @ff_put_bmp_header(ptr noundef %0, ptr noundef %1, i32 noundef %2, i32 noundef %3, i32 noundef %4) #0 {
  %6 = alloca ptr, align 8
  %7 = alloca ptr, align 8
  %8 = alloca i32, align 4
  %9 = alloca i32, align 4
  %10 = alloca i32, align 4
  %11 = alloca i32, align 4
  %12 = alloca i32, align 4
  %13 = alloca i32, align 4
  %14 = alloca i32, align 4
  %15 = alloca i32, align 4
  %16 = alloca i32, align 4
  store ptr %0, ptr %6, align 8, !tbaa !4
  store ptr %1, ptr %7, align 8, !tbaa !16
  store i32 %2, ptr %8, align 4, !tbaa !18
  store i32 %3, ptr %9, align 4, !tbaa !18
  store i32 %4, ptr %10, align 4, !tbaa !18
  call void @llvm.lifetime.start.p0(i64 4, ptr %11) #7
  %17 = load ptr, ptr %7, align 8, !tbaa !16
  %18 = getelementptr inbounds nuw %struct.AVCodecParameters, ptr %17, i32 0, i32 4
  %19 = load i32, ptr %18, align 8, !tbaa !35
  %20 = icmp sge i32 %19, 9
  br i1 %20, label %21, label %34

21:                                               ; preds = %5
  %22 = load ptr, ptr %7, align 8, !tbaa !16
  %23 = getelementptr inbounds nuw %struct.AVCodecParameters, ptr %22, i32 0, i32 3
  %24 = load ptr, ptr %23, align 8, !tbaa !36
  %25 = load ptr, ptr %7, align 8, !tbaa !16
  %26 = getelementptr inbounds nuw %struct.AVCodecParameters, ptr %25, i32 0, i32 4
  %27 = load i32, ptr %26, align 8, !tbaa !35
  %28 = sext i32 %27 to i64
  %29 = getelementptr inbounds i8, ptr %24, i64 %28
  %30 = getelementptr inbounds i8, ptr %29, i64 -9
  %31 = call i32 @memcmp(ptr noundef %30, ptr noundef @.str.5, i64 noundef 9) #10
  %32 = icmp ne i32 %31, 0
  %33 = xor i1 %32, true
  br label %34

34:                                               ; preds = %21, %5
  %35 = phi i1 [ false, %5 ], [ %33, %21 ]
  %36 = zext i1 %35 to i32
  store i32 %36, ptr %11, align 4, !tbaa !18
  call void @llvm.lifetime.start.p0(i64 4, ptr %12) #7
  %37 = load i32, ptr %11, align 4, !tbaa !18
  %38 = icmp ne i32 %37, 0
  br i1 %38, label %42, label %39

39:                                               ; preds = %34
  %40 = load i32, ptr %10, align 4, !tbaa !18
  %41 = icmp ne i32 %40, 0
  br label %42

42:                                               ; preds = %39, %34
  %43 = phi i1 [ true, %34 ], [ %41, %39 ]
  %44 = zext i1 %43 to i32
  store i32 %44, ptr %12, align 4, !tbaa !18
  call void @llvm.lifetime.start.p0(i64 4, ptr %13) #7
  %45 = load ptr, ptr %7, align 8, !tbaa !16
  %46 = getelementptr inbounds nuw %struct.AVCodecParameters, ptr %45, i32 0, i32 4
  %47 = load i32, ptr %46, align 8, !tbaa !35
  %48 = load i32, ptr %11, align 4, !tbaa !18
  %49 = mul nsw i32 9, %48
  %50 = sub nsw i32 %47, %49
  store i32 %50, ptr %13, align 4, !tbaa !18
  call void @llvm.lifetime.start.p0(i64 4, ptr %14) #7
  %51 = load ptr, ptr %7, align 8, !tbaa !16
  %52 = getelementptr inbounds nuw %struct.AVCodecParameters, ptr %51, i32 0, i32 7
  %53 = load i32, ptr %52, align 4, !tbaa !58
  store i32 %53, ptr %14, align 4, !tbaa !18
  call void @llvm.lifetime.start.p0(i64 4, ptr %15) #7
  %54 = load i32, ptr %14, align 4, !tbaa !18
  %55 = icmp eq i32 %54, -1
  br i1 %55, label %56, label %62

56:                                               ; preds = %42
  %57 = load ptr, ptr %7, align 8, !tbaa !16
  %58 = getelementptr inbounds nuw %struct.AVCodecParameters, ptr %57, i32 0, i32 9
  %59 = load i32, ptr %58, align 8, !tbaa !33
  %60 = icmp eq i32 %59, 1
  br i1 %60, label %61, label %62

61:                                               ; preds = %56
  store i32 9, ptr %14, align 4, !tbaa !18
  br label %62

62:                                               ; preds = %61, %56, %42
  %63 = load i32, ptr %8, align 4, !tbaa !18
  %64 = icmp ne i32 %63, 0
  br i1 %64, label %76, label %65

65:                                               ; preds = %62
  %66 = load i32, ptr %14, align 4, !tbaa !18
  %67 = icmp eq i32 %66, 11
  br i1 %67, label %74, label %68

68:                                               ; preds = %65
  %69 = load i32, ptr %14, align 4, !tbaa !18
  %70 = icmp eq i32 %69, 9
  br i1 %70, label %74, label %71

71:                                               ; preds = %68
  %72 = load i32, ptr %14, align 4, !tbaa !18
  %73 = icmp eq i32 %72, 10
  br label %74

74:                                               ; preds = %71, %68, %65
  %75 = phi i1 [ true, %68 ], [ true, %65 ], [ %73, %71 ]
  br label %76

76:                                               ; preds = %74, %62
  %77 = phi i1 [ false, %62 ], [ %75, %74 ]
  %78 = zext i1 %77 to i32
  store i32 %78, ptr %15, align 4, !tbaa !18
  %79 = load ptr, ptr %6, align 8, !tbaa !4
  %80 = load i32, ptr %9, align 4, !tbaa !18
  %81 = icmp ne i32 %80, 0
  br i1 %81, label %85, label %82

82:                                               ; preds = %76
  %83 = load i32, ptr %15, align 4, !tbaa !18
  %84 = icmp ne i32 %83, 0
  br i1 %84, label %85, label %86

85:                                               ; preds = %82, %76
  br label %88

86:                                               ; preds = %82
  %87 = load i32, ptr %13, align 4, !tbaa !18
  br label %88

88:                                               ; preds = %86, %85
  %89 = phi i32 [ 0, %85 ], [ %87, %86 ]
  %90 = add nsw i32 40, %89
  call void @avio_wl32(ptr noundef %79, i32 noundef %90)
  %91 = load ptr, ptr %6, align 8, !tbaa !4
  %92 = load ptr, ptr %7, align 8, !tbaa !16
  %93 = getelementptr inbounds nuw %struct.AVCodecParameters, ptr %92, i32 0, i32 13
  %94 = load i32, ptr %93, align 8, !tbaa !59
  call void @avio_wl32(ptr noundef %91, i32 noundef %94)
  %95 = load ptr, ptr %6, align 8, !tbaa !4
  %96 = load ptr, ptr %7, align 8, !tbaa !16
  %97 = getelementptr inbounds nuw %struct.AVCodecParameters, ptr %96, i32 0, i32 2
  %98 = load i32, ptr %97, align 8, !tbaa !20
  %99 = icmp ne i32 %98, 0
  br i1 %99, label %103, label %100

100:                                              ; preds = %88
  %101 = load i32, ptr %12, align 4, !tbaa !18
  %102 = icmp ne i32 %101, 0
  br i1 %102, label %103, label %107

103:                                              ; preds = %100, %88
  %104 = load ptr, ptr %7, align 8, !tbaa !16
  %105 = getelementptr inbounds nuw %struct.AVCodecParameters, ptr %104, i32 0, i32 14
  %106 = load i32, ptr %105, align 4, !tbaa !60
  br label %112

107:                                              ; preds = %100
  %108 = load ptr, ptr %7, align 8, !tbaa !16
  %109 = getelementptr inbounds nuw %struct.AVCodecParameters, ptr %108, i32 0, i32 14
  %110 = load i32, ptr %109, align 4, !tbaa !60
  %111 = sub nsw i32 0, %110
  br label %112

112:                                              ; preds = %107, %103
  %113 = phi i32 [ %106, %103 ], [ %111, %107 ]
  call void @avio_wl32(ptr noundef %95, i32 noundef %113)
  %114 = load ptr, ptr %6, align 8, !tbaa !4
  call void @avio_wl16(ptr noundef %114, i32 noundef 1)
  %115 = load ptr, ptr %6, align 8, !tbaa !4
  %116 = load ptr, ptr %7, align 8, !tbaa !16
  %117 = getelementptr inbounds nuw %struct.AVCodecParameters, ptr %116, i32 0, i32 9
  %118 = load i32, ptr %117, align 8, !tbaa !33
  %119 = icmp ne i32 %118, 0
  br i1 %119, label %120, label %124

120:                                              ; preds = %112
  %121 = load ptr, ptr %7, align 8, !tbaa !16
  %122 = getelementptr inbounds nuw %struct.AVCodecParameters, ptr %121, i32 0, i32 9
  %123 = load i32, ptr %122, align 8, !tbaa !33
  br label %125

124:                                              ; preds = %112
  br label %125

125:                                              ; preds = %124, %120
  %126 = phi i32 [ %123, %120 ], [ 24, %124 ]
  call void @avio_wl16(ptr noundef %115, i32 noundef %126)
  %127 = load ptr, ptr %6, align 8, !tbaa !4
  %128 = load ptr, ptr %7, align 8, !tbaa !16
  %129 = getelementptr inbounds nuw %struct.AVCodecParameters, ptr %128, i32 0, i32 1
  %130 = load i32, ptr %129, align 4, !tbaa !25
  %131 = icmp eq i32 %130, 45
  br i1 %131, label %132, label %133

132:                                              ; preds = %125
  br label %137

133:                                              ; preds = %125
  %134 = load ptr, ptr %7, align 8, !tbaa !16
  %135 = getelementptr inbounds nuw %struct.AVCodecParameters, ptr %134, i32 0, i32 2
  %136 = load i32, ptr %135, align 8, !tbaa !20
  br label %137

137:                                              ; preds = %133, %132
  %138 = phi i32 [ 1, %132 ], [ %136, %133 ]
  call void @avio_wl32(ptr noundef %127, i32 noundef %138)
  %139 = load ptr, ptr %6, align 8, !tbaa !4
  %140 = load ptr, ptr %7, align 8, !tbaa !16
  %141 = getelementptr inbounds nuw %struct.AVCodecParameters, ptr %140, i32 0, i32 13
  %142 = load i32, ptr %141, align 8, !tbaa !59
  %143 = load ptr, ptr %7, align 8, !tbaa !16
  %144 = getelementptr inbounds nuw %struct.AVCodecParameters, ptr %143, i32 0, i32 14
  %145 = load i32, ptr %144, align 4, !tbaa !60
  %146 = mul nsw i32 %142, %145
  %147 = load ptr, ptr %7, align 8, !tbaa !16
  %148 = getelementptr inbounds nuw %struct.AVCodecParameters, ptr %147, i32 0, i32 9
  %149 = load i32, ptr %148, align 8, !tbaa !33
  %150 = icmp ne i32 %149, 0
  br i1 %150, label %151, label %155

151:                                              ; preds = %137
  %152 = load ptr, ptr %7, align 8, !tbaa !16
  %153 = getelementptr inbounds nuw %struct.AVCodecParameters, ptr %152, i32 0, i32 9
  %154 = load i32, ptr %153, align 8, !tbaa !33
  br label %156

155:                                              ; preds = %137
  br label %156

156:                                              ; preds = %155, %151
  %157 = phi i32 [ %154, %151 ], [ 24, %155 ]
  %158 = mul nsw i32 %146, %157
  %159 = add nsw i32 %158, 7
  %160 = sdiv i32 %159, 8
  call void @avio_wl32(ptr noundef %139, i32 noundef %160)
  %161 = load ptr, ptr %6, align 8, !tbaa !4
  call void @avio_wl32(ptr noundef %161, i32 noundef 0)
  %162 = load ptr, ptr %6, align 8, !tbaa !4
  call void @avio_wl32(ptr noundef %162, i32 noundef 0)
  %163 = load ptr, ptr %6, align 8, !tbaa !4
  %164 = load i32, ptr %15, align 4, !tbaa !18
  %165 = icmp ne i32 %164, 0
  br i1 %165, label %166, label %176

166:                                              ; preds = %156
  %167 = load ptr, ptr %7, align 8, !tbaa !16
  %168 = getelementptr inbounds nuw %struct.AVCodecParameters, ptr %167, i32 0, i32 1
  %169 = load i32, ptr %168, align 4, !tbaa !25
  %170 = icmp ne i32 %169, 45
  br i1 %170, label %171, label %176

171:                                              ; preds = %166
  %172 = load ptr, ptr %7, align 8, !tbaa !16
  %173 = getelementptr inbounds nuw %struct.AVCodecParameters, ptr %172, i32 0, i32 9
  %174 = load i32, ptr %173, align 8, !tbaa !33
  %175 = shl i32 1, %174
  br label %177

176:                                              ; preds = %166, %156
  br label %177

177:                                              ; preds = %176, %171
  %178 = phi i32 [ %175, %171 ], [ 0, %176 ]
  call void @avio_wl32(ptr noundef %163, i32 noundef %178)
  %179 = load ptr, ptr %6, align 8, !tbaa !4
  call void @avio_wl32(ptr noundef %179, i32 noundef 0)
  %180 = load i32, ptr %9, align 4, !tbaa !18
  %181 = icmp ne i32 %180, 0
  br i1 %181, label %239, label %182

182:                                              ; preds = %177
  %183 = load ptr, ptr %7, align 8, !tbaa !16
  %184 = getelementptr inbounds nuw %struct.AVCodecParameters, ptr %183, i32 0, i32 4
  %185 = load i32, ptr %184, align 8, !tbaa !35
  %186 = icmp ne i32 %185, 0
  br i1 %186, label %187, label %202

187:                                              ; preds = %182
  %188 = load ptr, ptr %6, align 8, !tbaa !4
  %189 = load ptr, ptr %7, align 8, !tbaa !16
  %190 = getelementptr inbounds nuw %struct.AVCodecParameters, ptr %189, i32 0, i32 3
  %191 = load ptr, ptr %190, align 8, !tbaa !36
  %192 = load i32, ptr %13, align 4, !tbaa !18
  call void @avio_write(ptr noundef %188, ptr noundef %191, i32 noundef %192)
  %193 = load i32, ptr %8, align 4, !tbaa !18
  %194 = icmp ne i32 %193, 0
  br i1 %194, label %201, label %195

195:                                              ; preds = %187
  %196 = load i32, ptr %13, align 4, !tbaa !18
  %197 = and i32 %196, 1
  %198 = icmp ne i32 %197, 0
  br i1 %198, label %199, label %201

199:                                              ; preds = %195
  %200 = load ptr, ptr %6, align 8, !tbaa !4
  call void @avio_w8(ptr noundef %200, i32 noundef 0)
  br label %201

201:                                              ; preds = %199, %195, %187
  br label %238

202:                                              ; preds = %182
  %203 = load i32, ptr %15, align 4, !tbaa !18
  %204 = icmp ne i32 %203, 0
  br i1 %204, label %205, label %237

205:                                              ; preds = %202
  call void @llvm.lifetime.start.p0(i64 4, ptr %16) #7
  store i32 0, ptr %16, align 4, !tbaa !18
  br label %206

206:                                              ; preds = %233, %205
  %207 = load i32, ptr %16, align 4, !tbaa !18
  %208 = load ptr, ptr %7, align 8, !tbaa !16
  %209 = getelementptr inbounds nuw %struct.AVCodecParameters, ptr %208, i32 0, i32 9
  %210 = load i32, ptr %209, align 8, !tbaa !33
  %211 = shl i32 1, %210
  %212 = icmp slt i32 %207, %211
  br i1 %212, label %213, label %236

213:                                              ; preds = %206
  %214 = load i32, ptr %16, align 4, !tbaa !18
  %215 = icmp eq i32 %214, 0
  br i1 %215, label %216, label %221

216:                                              ; preds = %213
  %217 = load i32, ptr %14, align 4, !tbaa !18
  %218 = icmp eq i32 %217, 9
  br i1 %218, label %219, label %221

219:                                              ; preds = %216
  %220 = load ptr, ptr %6, align 8, !tbaa !4
  call void @avio_wl32(ptr noundef %220, i32 noundef 16777215)
  br label %232

221:                                              ; preds = %216, %213
  %222 = load i32, ptr %16, align 4, !tbaa !18
  %223 = icmp eq i32 %222, 1
  br i1 %223, label %224, label %229

224:                                              ; preds = %221
  %225 = load i32, ptr %14, align 4, !tbaa !18
  %226 = icmp eq i32 %225, 10
  br i1 %226, label %227, label %229

227:                                              ; preds = %224
  %228 = load ptr, ptr %6, align 8, !tbaa !4
  call void @avio_wl32(ptr noundef %228, i32 noundef 16777215)
  br label %231

229:                                              ; preds = %224, %221
  %230 = load ptr, ptr %6, align 8, !tbaa !4
  call void @avio_wl32(ptr noundef %230, i32 noundef 0)
  br label %231

231:                                              ; preds = %229, %227
  br label %232

232:                                              ; preds = %231, %219
  br label %233

233:                                              ; preds = %232
  %234 = load i32, ptr %16, align 4, !tbaa !18
  %235 = add nsw i32 %234, 1
  store i32 %235, ptr %16, align 4, !tbaa !18
  br label %206, !llvm.loop !61

236:                                              ; preds = %206
  call void @llvm.lifetime.end.p0(i64 4, ptr %16) #7
  br label %237

237:                                              ; preds = %236, %202
  br label %238

238:                                              ; preds = %237, %201
  br label %239

239:                                              ; preds = %238, %177
  call void @llvm.lifetime.end.p0(i64 4, ptr %15) #7
  call void @llvm.lifetime.end.p0(i64 4, ptr %14) #7
  call void @llvm.lifetime.end.p0(i64 4, ptr %13) #7
  call void @llvm.lifetime.end.p0(i64 4, ptr %12) #7
  call void @llvm.lifetime.end.p0(i64 4, ptr %11) #7
  ret void
}