; Function Attrs: nounwind uwtable
define void @ff_put_bmp_header(ptr noundef %0, ptr noundef readonly captures(none) %1, i32 noundef %2, i32 noundef %3, i32 noundef %4) local_unnamed_addr #0 {
  %6 = getelementptr inbounds nuw i8, ptr %1, i64 24
  %7 = load i32, ptr %6, align 8, !tbaa !26
  %8 = icmp sgt i32 %7, 8
  br i1 %8, label %10, label %.thread

.thread:                                          ; preds = %5
  %9 = icmp ne i32 %4, 0
  br label %18

10:                                               ; preds = %5
  %11 = getelementptr inbounds nuw i8, ptr %1, i64 16
  %12 = load ptr, ptr %11, align 8, !tbaa !27
  %13 = zext nneg i32 %7 to i64
  %14 = getelementptr inbounds nuw i8, ptr %12, i64 %13
  %15 = getelementptr inbounds i8, ptr %14, i64 -9
  %bcmp = tail call i32 @bcmp(ptr noundef nonnull dereferenceable(9) %15, ptr noundef nonnull dereferenceable(9) @.str.5, i64 9)
  %bcmp.fr = freeze i32 %bcmp
  %.not = icmp eq i32 %bcmp.fr, 0
  %16 = icmp ne i32 %4, 0
  %17 = or i1 %16, %.not
  %spec.select87 = select i1 %.not, i32 -9, i32 0
  br label %18

18:                                               ; preds = %10, %.thread
  %19 = phi i1 [ %9, %.thread ], [ %17, %10 ]
  %20 = phi i32 [ 0, %.thread ], [ %spec.select87, %10 ]
  %21 = add i32 %20, %7
  %22 = getelementptr inbounds nuw i8, ptr %1, i64 44
  %23 = load i32, ptr %22, align 4, !tbaa !46
  %24 = icmp eq i32 %23, -1
  br i1 %24, label %25, label %29

25:                                               ; preds = %18
  %26 = getelementptr inbounds nuw i8, ptr %1, i64 56
  %27 = load i32, ptr %26, align 8, !tbaa !24
  %28 = icmp eq i32 %27, 1
  %spec.select = select i1 %28, i32 9, i32 -1
  br label %29

29:                                               ; preds = %25, %18
  %.071 = phi i32 [ %23, %18 ], [ %spec.select, %25 ]
  %.071.fr = freeze i32 %.071
  %.not76 = icmp ne i32 %2, 0
  br i1 %.not76, label %33, label %30

30:                                               ; preds = %29
  %31 = and i32 %.071.fr, -3
  %or.cond = icmp eq i32 %31, 9
  %32 = icmp eq i32 %.071.fr, 10
  %spec.select82 = or i1 %32, %or.cond
  br label %33

33:                                               ; preds = %30, %29
  %34 = phi i1 [ false, %29 ], [ %spec.select82, %30 ]
  %35 = icmp ne i32 %3, 0
  %or.cond3 = or i1 %35, %34
  %36 = add nsw i32 %21, 40
  %37 = select i1 %or.cond3, i32 40, i32 %36
  tail call void @avio_wl32(ptr noundef %0, i32 noundef %37) #8
  %38 = getelementptr inbounds nuw i8, ptr %1, i64 72
  %39 = load i32, ptr %38, align 8, !tbaa !47
  tail call void @avio_wl32(ptr noundef %0, i32 noundef %39) #8
  %40 = getelementptr inbounds nuw i8, ptr %1, i64 8
  %41 = load i32, ptr %40, align 8, !tbaa !4
  %42 = icmp ne i32 %41, 0
  %or.cond5 = or i1 %19, %42
  %43 = getelementptr inbounds nuw i8, ptr %1, i64 76
  %44 = load i32, ptr %43, align 4, !tbaa !48
  %45 = sub nsw i32 0, %44
  %46 = select i1 %or.cond5, i32 %44, i32 %45
  tail call void @avio_wl32(ptr noundef %0, i32 noundef %46) #8
  tail call void @avio_wl16(ptr noundef %0, i32 noundef 1) #8
  %47 = getelementptr inbounds nuw i8, ptr %1, i64 56
  %48 = load i32, ptr %47, align 8, !tbaa !24
  %.not77 = icmp eq i32 %48, 0
  %spec.select83 = select i1 %.not77, i32 24, i32 %48
  tail call void @avio_wl16(ptr noundef %0, i32 noundef %spec.select83) #8
  %49 = getelementptr inbounds nuw i8, ptr %1, i64 4
  %50 = load i32, ptr %49, align 4, !tbaa !15
  %51 = icmp eq i32 %50, 45
  br i1 %51, label %54, label %52

52:                                               ; preds = %33
  %53 = load i32, ptr %40, align 8, !tbaa !4
  br label %54

54:                                               ; preds = %33, %52
  %55 = phi i32 [ %53, %52 ], [ 1, %33 ]
  tail call void @avio_wl32(ptr noundef %0, i32 noundef %55) #8
  %56 = load i32, ptr %38, align 8, !tbaa !47
  %57 = getelementptr inbounds nuw i8, ptr %1, i64 76
  %58 = load i32, ptr %57, align 4, !tbaa !48
  %59 = mul nsw i32 %58, %56
  %60 = load i32, ptr %47, align 8, !tbaa !24
  %.not78 = icmp eq i32 %60, 0
  %spec.select84 = select i1 %.not78, i32 24, i32 %60
  %61 = mul nsw i32 %59, %spec.select84
  %62 = add nsw i32 %61, 7
  %63 = sdiv i32 %62, 8
  tail call void @avio_wl32(ptr noundef %0, i32 noundef %63) #8
  tail call void @avio_wl32(ptr noundef %0, i32 noundef 0) #8
  tail call void @avio_wl32(ptr noundef %0, i32 noundef 0) #8
  br i1 %34, label %64, label %69

64:                                               ; preds = %54
  %65 = load i32, ptr %49, align 4, !tbaa !15
  %.not79 = icmp eq i32 %65, 45
  br i1 %.not79, label %69, label %66

66:                                               ; preds = %64
  %67 = load i32, ptr %47, align 8, !tbaa !24
  %68 = shl nuw i32 1, %67
  br label %69

69:                                               ; preds = %54, %64, %66
  %70 = phi i32 [ %68, %66 ], [ 0, %64 ], [ 0, %54 ]
  tail call void @avio_wl32(ptr noundef %0, i32 noundef %70) #8
  tail call void @avio_wl32(ptr noundef %0, i32 noundef 0) #8
  br i1 %35, label %.loopexit, label %71

71:                                               ; preds = %69
  %72 = load i32, ptr %6, align 8, !tbaa !26
  %.not80 = icmp eq i32 %72, 0
  br i1 %.not80, label %78, label %73

73:                                               ; preds = %71
  %74 = getelementptr inbounds nuw i8, ptr %1, i64 16
  %75 = load ptr, ptr %74, align 8, !tbaa !27
  tail call void @avio_write(ptr noundef %0, ptr noundef %75, i32 noundef %21) #8
  %76 = and i32 %21, 1
  %.not81 = icmp eq i32 %76, 0
  %or.cond85 = or i1 %.not76, %.not81
  br i1 %or.cond85, label %.loopexit, label %77

77:                                               ; preds = %73
  tail call void @avio_w8(ptr noundef %0, i32 noundef 0) #8
  br label %.loopexit

78:                                               ; preds = %71
  br i1 %34, label %.preheader, label %.loopexit

.preheader:                                       ; preds = %78
  %79 = load i32, ptr %47, align 8, !tbaa !24
  %.not93 = icmp eq i32 %79, 31
  br i1 %.not93, label %.loopexit, label %.lr.ph

.lr.ph:                                           ; preds = %.preheader
  switch i32 %.071.fr, label %.lr.ph.split.us.split.us [
    i32 9, label %.lr.ph.split.split.us
    i32 10, label %.lr.ph.split.us.split
  ]

.lr.ph.split.us.split.us:                         ; preds = %.lr.ph, %.lr.ph.split.us.split.us
  %.088.us.us = phi i32 [ %80, %.lr.ph.split.us.split.us ], [ 0, %.lr.ph ]
  tail call void @avio_wl32(ptr noundef %0, i32 noundef 0) #8
  %80 = add nuw nsw i32 %.088.us.us, 1
  %81 = load i32, ptr %47, align 8, !tbaa !24
  %82 = shl nuw i32 1, %81
  %83 = icmp slt i32 %80, %82
  br i1 %83, label %.lr.ph.split.us.split.us, label %.loopexit, !llvm.loop !49

.lr.ph.split.us.split:                            ; preds = %.lr.ph, %.lr.ph.split.us.split
  %.088.us = phi i32 [ %85, %.lr.ph.split.us.split ], [ 0, %.lr.ph ]
  %84 = icmp eq i32 %.088.us, 1
  %. = select i1 %84, i32 16777215, i32 0
  tail call void @avio_wl32(ptr noundef %0, i32 noundef %.) #8
  %85 = add nuw nsw i32 %.088.us, 1
  %86 = load i32, ptr %47, align 8, !tbaa !24
  %87 = shl nuw i32 1, %86
  %88 = icmp slt i32 %85, %87
  br i1 %88, label %.lr.ph.split.us.split, label %.loopexit, !llvm.loop !49

.lr.ph.split.split.us:                            ; preds = %.lr.ph, %.lr.ph.split.split.us
  %.088.us89 = phi i32 [ %90, %.lr.ph.split.split.us ], [ 0, %.lr.ph ]
  %89 = icmp eq i32 %.088.us89, 0
  %.100 = select i1 %89, i32 16777215, i32 0
  tail call void @avio_wl32(ptr noundef %0, i32 noundef %.100) #8
  %90 = add nuw nsw i32 %.088.us89, 1
  %91 = load i32, ptr %47, align 8, !tbaa !24
  %92 = shl nuw i32 1, %91
  %93 = icmp slt i32 %90, %92
  br i1 %93, label %.lr.ph.split.split.us, label %.loopexit, !llvm.loop !49

.loopexit:                                        ; preds = %.lr.ph.split.us.split, %.lr.ph.split.split.us, %.lr.ph.split.us.split.us, %.preheader, %77, %73, %78, %69
  ret void
}